; Function Attrs: nounwind uwtable
define noundef i32 @pmix_show_help_finalize() local_unnamed_addr #0 {
  %1 = load i32, ptr @output_stream, align 4, !tbaa !24
  tail call void @pmix_output_close(i32 noundef %1) #18
  store i32 -1, ptr @output_stream, align 4, !tbaa !24
  %2 = load ptr, ptr @search_dirs, align 8, !tbaa !62
  %.not = icmp eq ptr %2, null
  br i1 %.not, label %4, label %3

3:                                                ; preds = %0
  tail call void @PMIx_Argv_free(ptr noundef nonnull %2) #18
  store ptr null, ptr @search_dirs, align 8, !tbaa !62
  br label %4

4:                                                ; preds = %0, %3
  %5 = load volatile i64, ptr getelementptr inbounds nuw (i8, ptr @abd_tuples, i64 264), align 8, !tbaa !51
  %6 = icmp eq i64 %5, 0
  br i1 %6, label %._crit_edge, label %.lr.ph

.lr.ph:                                           ; preds = %4, %39
  %7 = load volatile i64, ptr getelementptr inbounds nuw (i8, ptr @abd_tuples, i64 264), align 8, !tbaa !51
  %8 = add i64 %7, -1
  store volatile i64 %8, ptr getelementptr inbounds nuw (i8, ptr @abd_tuples, i64 264), align 8, !tbaa !51
  %9 = load ptr, ptr getelementptr inbounds nuw (i8, ptr @abd_tuples, i64 240), align 8, !tbaa !64
  %10 = getelementptr inbounds nuw i8, ptr %9, i64 128
  %11 = load volatile ptr, ptr %10, align 8, !tbaa !50
  %12 = getelementptr inbounds nuw i8, ptr %9, i64 120
  %13 = load volatile ptr, ptr %12, align 8, !tbaa !3
  %14 = getelementptr inbounds nuw i8, ptr %13, i64 128
  store volatile ptr %11, ptr %14, align 8, !tbaa !50
  %15 = load volatile ptr, ptr %12, align 8, !tbaa !3
  store ptr %15, ptr getelementptr inbounds nuw (i8, ptr @abd_tuples, i64 240), align 8, !tbaa !64
  %16 = tail call i32 @pthread_mutex_lock(ptr noundef nonnull %9) #18
  %17 = icmp eq i32 %16, 35
  br i1 %17, label %18, label %pmix_obj_update.exit

18:                                               ; preds = %.lr.ph
  %19 = tail call ptr @__errno_location() #20
  store i32 35, ptr %19, align 4, !tbaa !24
  tail call void @perror(ptr noundef nonnull @.str.10) #21
  tail call void @abort() #22
  unreachable

pmix_obj_update.exit:                             ; preds = %.lr.ph
  %20 = getelementptr inbounds nuw i8, ptr %9, i64 48
  %21 = load i32, ptr %20, align 8, !tbaa !27
  %22 = add nsw i32 %21, -1
  store i32 %22, ptr %20, align 8, !tbaa !27
  %23 = tail call i32 @pthread_mutex_unlock(ptr noundef nonnull %9) #18
  %24 = icmp eq i32 %22, 0
  br i1 %24, label %25, label %39

25:                                               ; preds = %pmix_obj_update.exit
  %26 = getelementptr inbounds nuw i8, ptr %9, i64 40
  %27 = load ptr, ptr %26, align 8, !tbaa !26
  %28 = getelementptr inbounds nuw i8, ptr %27, i64 48
  %29 = load ptr, ptr %28, align 8, !tbaa !65
  %30 = load ptr, ptr %29, align 8, !tbaa !29
  %.not6.i = icmp eq ptr %30, null
  br i1 %.not6.i, label %pmix_obj_run_destructors.exit, label %.lr.ph.i

.lr.ph.i:                                         ; preds = %25, %.lr.ph.i
  %31 = phi ptr [ %33, %.lr.ph.i ], [ %30, %25 ]
  %.07.i = phi ptr [ %32, %.lr.ph.i ], [ %29, %25 ]
  tail call void %31(ptr noundef nonnull %9) #18
  %32 = getelementptr inbounds nuw i8, ptr %.07.i, i64 8
  %33 = load ptr, ptr %32, align 8, !tbaa !29
  %.not.i = icmp eq ptr %33, null
  br i1 %.not.i, label %pmix_obj_run_destructors.exit, label %.lr.ph.i, !llvm.loop !66

pmix_obj_run_destructors.exit:                    ; preds = %.lr.ph.i, %25
  %34 = getelementptr inbounds nuw i8, ptr %9, i64 96
  %35 = load ptr, ptr %34, align 8, !tbaa !67
  %.not9 = icmp eq ptr %35, null
  br i1 %.not9, label %38, label %36

36:                                               ; preds = %pmix_obj_run_destructors.exit
  %37 = getelementptr inbounds nuw i8, ptr %9, i64 56
  tail call void %35(ptr noundef nonnull %37, ptr noundef nonnull %9) #18
  br label %39

38:                                               ; preds = %pmix_obj_run_destructors.exit
  tail call void @free(ptr noundef nonnull %9) #18
  br label %39

39:                                               ; preds = %36, %38, %pmix_obj_update.exit
  %40 = load volatile i64, ptr getelementptr inbounds nuw (i8, ptr @abd_tuples, i64 264), align 8, !tbaa !51
  %41 = icmp eq i64 %40, 0
  br i1 %41, label %._crit_edge, label %.lr.ph, !llvm.loop !68

._crit_edge:                                      ; preds = %39, %4
  %42 = load ptr, ptr getelementptr inbounds nuw (i8, ptr @abd_tuples, i64 40), align 8, !tbaa !26
  %43 = getelementptr inbounds nuw i8, ptr %42, i64 48
  %44 = load ptr, ptr %43, align 8, !tbaa !65
  %45 = load ptr, ptr %44, align 8, !tbaa !29
  %.not6.i11 = icmp eq ptr %45, null
  br i1 %.not6.i11, label %pmix_obj_run_destructors.exit15, label %.lr.ph.i12

.lr.ph.i12:                                       ; preds = %._crit_edge, %.lr.ph.i12
  %46 = phi ptr [ %48, %.lr.ph.i12 ], [ %45, %._crit_edge ]
  %.07.i13 = phi ptr [ %47, %.lr.ph.i12 ], [ %44, %._crit_edge ]
  tail call void %46(ptr noundef nonnull @abd_tuples) #18
  %47 = getelementptr inbounds nuw i8, ptr %.07.i13, i64 8
  %48 = load ptr, ptr %47, align 8, !tbaa !29
  %.not.i14 = icmp eq ptr %48, null
  br i1 %.not.i14, label %pmix_obj_run_destructors.exit15, label %.lr.ph.i12, !llvm.loop !66

pmix_obj_run_destructors.exit15:                  ; preds = %.lr.ph.i12, %._crit_edge
  ret i32 0
}